; ModuleID = '11/746.c'
source_filename = "11/746.c"
target datalayout = "e-m:e-p270:32:32-p271:32:32-p272:64:64-i64:64-f80:128-n8:16:32:64-S128"
target triple = "x86_64-pc-linux-gnu"

@.str = private unnamed_addr constant [7 x i8] c"%d%d%d\00", align 1
@.str.1 = private unnamed_addr constant [3 x i8] c"%d\00", align 1

; Function Attrs: noinline nounwind uwtable
define dso_local i32 @isRunNian(i32 %0) #0 {
  %2 = alloca i32, align 4
  %3 = alloca i32, align 4
  store i32 %0, i32* %2, align 4
  %4 = load i32, i32* %2, align 4
  %5 = srem i32 %4, 400
  %6 = icmp eq i32 %5, 0
  br i1 %6, label %15, label %7

7:                                                ; preds = %1
  %8 = load i32, i32* %2, align 4
  %9 = srem i32 %8, 4
  %10 = icmp eq i32 %9, 0
  br i1 %10, label %11, label %16

11:                                               ; preds = %7
  %12 = load i32, i32* %2, align 4
  %13 = srem i32 %12, 100
  %14 = icmp ne i32 %13, 0
  br i1 %14, label %15, label %16

15:                                               ; preds = %11, %1
  store i32 1, i32* %3, align 4
  br label %17

16:                                               ; preds = %11, %7
  store i32 0, i32* %3, align 4
  br label %17

17:                                               ; preds = %16, %15
  %18 = load i32, i32* %3, align 4
  ret i32 %18
}

; Function Attrs: noinline nounwind uwtable
define dso_local i32 @main() #0 {
  %1 = alloca i32, align 4
  %2 = alloca i32, align 4
  %3 = alloca i32, align 4
  %4 = alloca i32, align 4
  %5 = alloca i32, align 4
  %6 = alloca i32, align 4
  store i32 0, i32* %1, align 4
  store i32 0, i32* %5, align 4
  %7 = call i32 (i8*, ...) @__isoc99_scanf(i8* getelementptr inbounds ([7 x i8], [7 x i8]* @.str, i64 0, i64 0), i32* %2, i32* %3, i32* %4)
  store i32 1, i32* %6, align 4
  br label %8

8:                                                ; preds = %68, %0
  %9 = load i32, i32* %6, align 4
  %10 = load i32, i32* %3, align 4
  %11 = icmp slt i32 %9, %10
  br i1 %11, label %12, label %71

12:                                               ; preds = %8
  %13 = load i32, i32* %6, align 4
  %14 = icmp eq i32 %13, 1
  br i1 %14, label %33, label %15

15:                                               ; preds = %12
  %16 = load i32, i32* %6, align 4
  %17 = icmp eq i32 %16, 3
  br i1 %17, label %33, label %18

18:                                               ; preds = %15
  %19 = load i32, i32* %6, align 4
  %20 = icmp eq i32 %19, 5
  br i1 %20, label %33, label %21

21:                                               ; preds = %18
  %22 = load i32, i32* %6, align 4
  %23 = icmp eq i32 %22, 7
  br i1 %23, label %33, label %24

24:                                               ; preds = %21
  %25 = load i32, i32* %6, align 4
  %26 = icmp eq i32 %25, 8
  br i1 %26, label %33, label %27

27:                                               ; preds = %24
  %28 = load i32, i32* %6, align 4
  %29 = icmp eq i32 %28, 10
  br i1 %29, label %33, label %30

30:                                               ; preds = %27
  %31 = load i32, i32* %6, align 4
  %32 = icmp eq i32 %31, 12
  br i1 %32, label %33, label %36

33:                                               ; preds = %30, %27, %24, %21, %18, %15, %12
  %34 = load i32, i32* %5, align 4
  %35 = add nsw i32 %34, 31
  store i32 %35, i32* %5, align 4
  br label %67

36:                                               ; preds = %30
  %37 = load i32, i32* %6, align 4
  %38 = icmp eq i32 %37, 4
  br i1 %38, label %48, label %39

39:                                               ; preds = %36
  %40 = load i32, i32* %6, align 4
  %41 = icmp eq i32 %40, 6
  br i1 %41, label %48, label %42

42:                                               ; preds = %39
  %43 = load i32, i32* %6, align 4
  %44 = icmp eq i32 %43, 9
  br i1 %44, label %48, label %45

45:                                               ; preds = %42
  %46 = load i32, i32* %6, align 4
  %47 = icmp eq i32 %46, 11
  br i1 %47, label %48, label %51

48:                                               ; preds = %45, %42, %39, %36
  %49 = load i32, i32* %5, align 4
  %50 = add nsw i32 %49, 30
  store i32 %50, i32* %5, align 4
  br label %66

51:                                               ; preds = %45
  %52 = load i32, i32* %6, align 4
  %53 = icmp eq i32 %52, 2
  br i1 %53, label %54, label %65

54:                                               ; preds = %51
  %55 = load i32, i32* %2, align 4
  %56 = call i32 @isRunNian(i32 %55)
  %57 = icmp ne i32 %56, 0
  br i1 %57, label %58, label %61

58:                                               ; preds = %54
  %59 = load i32, i32* %5, align 4
  %60 = add nsw i32 %59, 29
  store i32 %60, i32* %5, align 4
  br label %64

61:                                               ; preds = %54
  %62 = load i32, i32* %5, align 4
  %63 = add nsw i32 %62, 28
  store i32 %63, i32* %5, align 4
  br label %64

64:                                               ; preds = %61, %58
  br label %65

65:                                               ; preds = %64, %51
  br label %66

66:                                               ; preds = %65, %48
  br label %67

67:                                               ; preds = %66, %33
  br label %68

68:                                               ; preds = %67
  %69 = load i32, i32* %6, align 4
  %70 = add nsw i32 %69, 1
  store i32 %70, i32* %6, align 4
  br label %8

71:                                               ; preds = %8
  %72 = load i32, i32* %4, align 4
  %73 = load i32, i32* %5, align 4
  %74 = add nsw i32 %73, %72
  store i32 %74, i32* %5, align 4
  %75 = load i32, i32* %5, align 4
  %76 = call i32 (i8*, ...) @printf(i8* getelementptr inbounds ([3 x i8], [3 x i8]* @.str.1, i64 0, i64 0), i32 %75)
  ret i32 0
}

declare dso_local i32 @__isoc99_scanf(i8*, ...) #1

declare dso_local i32 @printf(i8*, ...) #1


!llvm.module.flags = !{!0}
!llvm.ident = !{!1}

!0 = !{i32 1, !"wchar_size", i32 4}
!1 = !{!"clang version 10.0.0-4ubuntu1 "}
